target datalayout = "e-m:e-p270:32:32-p271:32:32-p272:64:64-i64:64-i128:128-f80:128-n8:16:32:64-S128"
target triple = "x86_64-pc-linux-gnu"

%struct.SUNMemoryHelper_ = type { ptr, ptr, ptr }
%struct.SUNMemoryHelper_Ops_ = type { ptr, ptr, ptr, ptr, ptr, ptr, ptr }

; Function Attrs: nounwind uwtable
define i32 @SUNMemoryHelper_Destroy(ptr noundef %0) #0 {
  %2 = alloca i32, align 4
  %3 = alloca ptr, align 8
  %4 = alloca i32, align 4
  %5 = alloca ptr, align 8
  %6 = alloca i32, align 4
  store ptr %0, ptr %3, align 8, !tbaa !14
  call void @llvm.lifetime.start.p0(i64 4, ptr %4) #6
  store i32 0, ptr %4, align 4, !tbaa !29
  call void @llvm.lifetime.start.p0(i64 8, ptr %5) #6
  %7 = load ptr, ptr %3, align 8, !tbaa !14
  %8 = getelementptr inbounds nuw %struct.SUNMemoryHelper_, ptr %7, i32 0, i32 2
  %9 = load ptr, ptr %8, align 8, !tbaa !20
  store ptr %9, ptr %5, align 8, !tbaa !3
  %10 = load ptr, ptr %3, align 8, !tbaa !14
  %11 = icmp ne ptr %10, null
  br i1 %11, label %14, label %12

12:                                               ; preds = %1
  %13 = load i32, ptr %4, align 4, !tbaa !29
  store i32 %13, ptr %2, align 4
  store i32 1, ptr %6, align 4
  br label %42

14:                                               ; preds = %1
  %15 = load ptr, ptr %3, align 8, !tbaa !14
  %16 = getelementptr inbounds nuw %struct.SUNMemoryHelper_, ptr %15, i32 0, i32 0
  %17 = load ptr, ptr %16, align 8, !tbaa !19
  %18 = icmp ne ptr %17, null
  br i1 %18, label %19, label %20

19:                                               ; preds = %14
  br label %20

20:                                               ; preds = %19, %14
  %21 = load ptr, ptr %3, align 8, !tbaa !14
  %22 = getelementptr inbounds nuw %struct.SUNMemoryHelper_, ptr %21, i32 0, i32 1
  %23 = load ptr, ptr %22, align 8, !tbaa !16
  %24 = getelementptr inbounds nuw %struct.SUNMemoryHelper_Ops_, ptr %23, i32 0, i32 6
  %25 = load ptr, ptr %24, align 8, !tbaa !37
  %26 = icmp ne ptr %25, null
  br i1 %26, label %27, label %35

27:                                               ; preds = %20
  %28 = load ptr, ptr %3, align 8, !tbaa !14
  %29 = getelementptr inbounds nuw %struct.SUNMemoryHelper_, ptr %28, i32 0, i32 1
  %30 = load ptr, ptr %29, align 8, !tbaa !16
  %31 = getelementptr inbounds nuw %struct.SUNMemoryHelper_Ops_, ptr %30, i32 0, i32 6
  %32 = load ptr, ptr %31, align 8, !tbaa !37
  %33 = load ptr, ptr %3, align 8, !tbaa !14
  %34 = call i32 %32(ptr noundef %33)
  store i32 %34, ptr %4, align 4, !tbaa !29
  br label %40

35:                                               ; preds = %20
  %36 = load ptr, ptr %3, align 8, !tbaa !14
  %37 = getelementptr inbounds nuw %struct.SUNMemoryHelper_, ptr %36, i32 0, i32 1
  %38 = load ptr, ptr %37, align 8, !tbaa !16
  call void @free(ptr noundef %38) #6
  %39 = load ptr, ptr %3, align 8, !tbaa !14
  call void @free(ptr noundef %39) #6
  br label %40

40:                                               ; preds = %35, %27
  %41 = load i32, ptr %4, align 4, !tbaa !29
  store i32 %41, ptr %2, align 4
  store i32 1, ptr %6, align 4
  br label %42

42:                                               ; preds = %40, %12
  call void @llvm.lifetime.end.p0(i64 8, ptr %5) #6
  call void @llvm.lifetime.end.p0(i64 4, ptr %4) #6
  %43 = load i32, ptr %2, align 4
  ret i32 %43
}