; Function Attrs: nounwind uwtable
define i32 @SUNMemoryHelper_Destroy(ptr noundef %0) local_unnamed_addr #6 {
  %.not = icmp eq ptr %0, null
  br i1 %.not, label %10, label %2

2:                                                ; preds = %1
  %3 = getelementptr inbounds nuw i8, ptr %0, i64 8
  %4 = load ptr, ptr %3, align 8, !tbaa !10
  %5 = getelementptr inbounds nuw i8, ptr %4, i64 48
  %6 = load ptr, ptr %5, align 8, !tbaa !25
  %.not13 = icmp eq ptr %6, null
  br i1 %.not13, label %9, label %7

7:                                                ; preds = %2
  %8 = tail call i32 %6(ptr noundef nonnull %0) #10
  br label %10

9:                                                ; preds = %2
  tail call void @free(ptr noundef nonnull %4) #10
  tail call void @free(ptr noundef nonnull %0) #10
  br label %10

10:                                               ; preds = %7, %9, %1
  %.0 = phi i32 [ 0, %1 ], [ %8, %7 ], [ 0, %9 ]
  ret i32 %.0
}